opt subtitle "HI-TECH Software Omniscient Code Generator (Lite mode) build 6446"

opt pagewidth 120

	opt lm

	processor	16F877A
clrc	macro
	bcf	3,0
	endm
clrz	macro
	bcf	3,2
	endm
setc	macro
	bsf	3,0
	endm
setz	macro
	bsf	3,2
	endm
skipc	macro
	btfss	3,0
	endm
skipz	macro
	btfss	3,2
	endm
skipnc	macro
	btfsc	3,0
	endm
skipnz	macro
	btfsc	3,2
	endm
indf	equ	0
indf0	equ	0
pc	equ	2
pcl	equ	2
status	equ	3
fsr	equ	4
fsr0	equ	4
c	equ	1
z	equ	0
pclath	equ	10
# 2 "C:\Users\Lenovo\Desktop\PIC\TASK\REALTIME_PROJ\2.BT_ROBOT\BT_ROBOT\BT_ROBOT.C"
	psect config,class=CONFIG,delta=2 ;#
# 2 "C:\Users\Lenovo\Desktop\PIC\TASK\REALTIME_PROJ\2.BT_ROBOT\BT_ROBOT\BT_ROBOT.C"
	dw 0x3f72 ;#
	FNROOT	_main
	global	_PORTC
psect	maintext,global,class=CODE,delta=2
global __pmaintext
__pmaintext:
_PORTC	set	7
	global	_PORTD
_PORTD	set	8
	global	_RCREG
_RCREG	set	26
	global	_RCSTA
_RCSTA	set	24
	global	_SPBRG
_SPBRG	set	153
	global	_TRISC
_TRISC	set	135
	global	_TRISD
_TRISD	set	136
	global	_TXSTA
_TXSTA	set	152
	global	_BRGH
_BRGH	set	1218
	file	"BT_ROBOT.as"
	line	#
psect cinit,class=CODE,delta=2
global start_initialization
start_initialization:

psect cinit,class=CODE,delta=2
global end_of_initialization

;End of C runtime variable initialization code

end_of_initialization:
clrf status
ljmp _main	;jump to C main() function
psect	cstackCOMMON,class=COMMON,space=1
global __pcstackCOMMON
__pcstackCOMMON:
	global	?_main
?_main:	; 0 bytes @ 0x0
	global	??_main
??_main:	; 0 bytes @ 0x0
	ds	3
;;Data sizes: Strings 0, constant 0, data 0, bss 0, persistent 0 stack 0
;;Auto spaces:   Size  Autos    Used
;; COMMON          14      3       3
;; BANK0           80      0       0
;; BANK1           80      0       0
;; BANK3           96      0       0
;; BANK2           96      0       0

;;
;; Pointer list with targets:



;;
;; Critical Paths under _main in COMMON
;;
;;   None.
;;
;; Critical Paths under _main in BANK0
;;
;;   None.
;;
;; Critical Paths under _main in BANK1
;;
;;   None.
;;
;; Critical Paths under _main in BANK3
;;
;;   None.
;;
;; Critical Paths under _main in BANK2
;;
;;   None.

;;
;;Main: autosize = 0, tempsize = 3, incstack = 0, save=0
;;

;;
;;Call Graph Tables:
;;
;; ---------------------------------------------------------------------------------
;; (Depth) Function   	        Calls       Base Space   Used Autos Params    Refs
;; ---------------------------------------------------------------------------------
;; (0) _main                                                 3     3      0       0
;;                                              0 COMMON     3     3      0
;; ---------------------------------------------------------------------------------
;; Estimated maximum stack depth 0
;; ---------------------------------------------------------------------------------

;; Call Graph Graphs:

;; _main (ROOT)
;;

;; Address spaces:

;;Name               Size   Autos  Total    Cost      Usage
;;BITCOMMON            E      0       0       0        0.0%
;;EEDATA             100      0       0       0        0.0%
;;NULL                 0      0       0       0        0.0%
;;CODE                 0      0       0       0        0.0%
;;COMMON               E      3       3       1       21.4%
;;BITSFR0              0      0       0       1        0.0%
;;SFR0                 0      0       0       1        0.0%
;;BITSFR1              0      0       0       2        0.0%
;;SFR1                 0      0       0       2        0.0%
;;STACK                0      0       0       2        0.0%
;;ABS                  0      0       0       3        0.0%
;;BITBANK0            50      0       0       4        0.0%
;;BITSFR3              0      0       0       4        0.0%
;;SFR3                 0      0       0       4        0.0%
;;BANK0               50      0       0       5        0.0%
;;BITSFR2              0      0       0       5        0.0%
;;SFR2                 0      0       0       5        0.0%
;;BITBANK1            50      0       0       6        0.0%
;;BANK1               50      0       0       7        0.0%
;;BITBANK3            60      0       0       8        0.0%
;;BANK3               60      0       0       9        0.0%
;;BITBANK2            60      0       0      10        0.0%
;;BANK2               60      0       0      11        0.0%
;;DATA                 0      0       0      12        0.0%

	global	_main
psect	maintext

;; *************** function _main *****************
;; Defined at:
;;		line 5 in file "C:\Users\Lenovo\Desktop\PIC\TASK\REALTIME_PROJ\2.BT_ROBOT\BT_ROBOT\BT_ROBOT.C"
;; Parameters:    Size  Location     Type
;;		None
;; Auto vars:     Size  Location     Type
;;		None
;; Return value:  Size  Location     Type
;;		None               void
;; Registers used:
;;		wreg, status,2
;; Tracked objects:
;;		On entry : 17F/0
;;		On exit  : 0/0
;;		Unchanged: 0/0
;; Data sizes:     COMMON   BANK0   BANK1   BANK3   BANK2
;;      Params:         0       0       0       0       0
;;      Locals:         0       0       0       0       0
;;      Temps:          3       0       0       0       0
;;      Totals:         3       0       0       0       0
;;Total ram usage:        3 bytes
;; This function calls:
;;		Nothing
;; This function is called by:
;;		Startup code after reset
;; This function uses a non-reentrant model
;;
psect	maintext
	file	"C:\Users\Lenovo\Desktop\PIC\TASK\REALTIME_PROJ\2.BT_ROBOT\BT_ROBOT\BT_ROBOT.C"
	line	5
	global	__size_of_main
	__size_of_main	equ	__end_of_main-_main
	
_main:	
	opt	stack 8
; Regs used in _main: [wreg+status,2]
	line	6
	
l1724:	
;BT_ROBOT.C: 6: TRISD=0X00;TRISC=0X80;
	bsf	status, 5	;RP0=1, select bank1
	bcf	status, 6	;RP1=0, select bank1
	clrf	(136)^080h	;volatile
	
l1726:	
	movlw	(080h)
	movwf	(135)^080h	;volatile
	line	7
	
l1728:	
;BT_ROBOT.C: 7: PORTC=0X00;PORTD=0X00;
	bcf	status, 5	;RP0=0, select bank0
	bcf	status, 6	;RP1=0, select bank0
	clrf	(7)	;volatile
	
l1730:	
	clrf	(8)	;volatile
	line	8
	
l1732:	
;BT_ROBOT.C: 8: TXSTA=0X24;
	movlw	(024h)
	bsf	status, 5	;RP0=1, select bank1
	bcf	status, 6	;RP1=0, select bank1
	movwf	(152)^080h	;volatile
	line	9
	
l1734:	
;BT_ROBOT.C: 9: RCSTA=0X90;
	movlw	(090h)
	bcf	status, 5	;RP0=0, select bank0
	bcf	status, 6	;RP1=0, select bank0
	movwf	(24)	;volatile
	line	10
	
l1736:	
;BT_ROBOT.C: 10: BRGH=1;
	bsf	status, 5	;RP0=1, select bank1
	bcf	status, 6	;RP1=0, select bank1
	bsf	(1218/8)^080h,(1218)&7
	line	11
	
l1738:	
;BT_ROBOT.C: 11: SPBRG=25;
	movlw	(019h)
	movwf	(153)^080h	;volatile
	line	12
;BT_ROBOT.C: 12: while(1)
	
l561:	
	line	14
	
l1740:	
;BT_ROBOT.C: 13: {
;BT_ROBOT.C: 14: if(RCREG=='1')
	bcf	status, 5	;RP0=0, select bank0
	bcf	status, 6	;RP1=0, select bank0
	movf	(26),w	;volatile
	xorlw	031h
	skipz
	goto	u2141
	goto	u2140
u2141:
	goto	l562
u2140:
	line	16
	
l1742:	
;BT_ROBOT.C: 15: {
;BT_ROBOT.C: 16: PORTD=0X0C;
	movlw	(0Ch)
	movwf	(8)	;volatile
	line	17
;BT_ROBOT.C: 17: _delay((unsigned long)((1000)*(4000000/4000.0)));
	opt asmopt_off
movlw  6
movwf	((??_main+0)+0+2),f
movlw	14
movwf	((??_main+0)+0+1),f
	movlw	176
movwf	((??_main+0)+0),f
u2177:
	decfsz	((??_main+0)+0),f
	goto	u2177
	decfsz	((??_main+0)+0+1),f
	goto	u2177
	decfsz	((??_main+0)+0+2),f
	goto	u2177
opt asmopt_on

	line	18
;BT_ROBOT.C: 18: }
	goto	l563
	line	19
	
l562:	
	
l1744:	
;BT_ROBOT.C: 19: else if(RCREG=='2')
	bcf	status, 5	;RP0=0, select bank0
	bcf	status, 6	;RP1=0, select bank0
	movf	(26),w	;volatile
	xorlw	032h
	skipz
	goto	u2151
	goto	u2150
u2151:
	goto	l564
u2150:
	line	21
	
l1746:	
;BT_ROBOT.C: 20: {
;BT_ROBOT.C: 21: PORTD=0x05;
	movlw	(05h)
	movwf	(8)	;volatile
	line	22
;BT_ROBOT.C: 22: _delay((unsigned long)((1000)*(4000000/4000.0)));
	opt asmopt_off
movlw  6
movwf	((??_main+0)+0+2),f
movlw	14
movwf	((??_main+0)+0+1),f
	movlw	176
movwf	((??_main+0)+0),f
u2187:
	decfsz	((??_main+0)+0),f
	goto	u2187
	decfsz	((??_main+0)+0+1),f
	goto	u2187
	decfsz	((??_main+0)+0+2),f
	goto	u2187
opt asmopt_on

	line	23
;BT_ROBOT.C: 23: }
	goto	l565
	line	24
	
l564:	
	
l1748:	
;BT_ROBOT.C: 24: else if(RCREG=='3')
	bcf	status, 5	;RP0=0, select bank0
	bcf	status, 6	;RP1=0, select bank0
	movf	(26),w	;volatile
	xorlw	033h
	skipz
	goto	u2161
	goto	u2160
u2161:
	goto	l566
u2160:
	line	26
	
l1750:	
;BT_ROBOT.C: 25: {
;BT_ROBOT.C: 26: PORTD=0x0A;
	movlw	(0Ah)
	movwf	(8)	;volatile
	line	27
;BT_ROBOT.C: 27: _delay((unsigned long)((1000)*(4000000/4000.0)));
	opt asmopt_off
movlw  6
movwf	((??_main+0)+0+2),f
movlw	14
movwf	((??_main+0)+0+1),f
	movlw	176
movwf	((??_main+0)+0),f
u2197:
	decfsz	((??_main+0)+0),f
	goto	u2197
	decfsz	((??_main+0)+0+1),f
	goto	u2197
	decfsz	((??_main+0)+0+2),f
	goto	u2197
opt asmopt_on

	line	28
	
l566:	
	line	29
	
l565:	
	
l563:	
	
l567:	
	line	12
	goto	l561
	
l568:	
	line	30
	
l569:	
	global	start
	ljmp	start
	opt stack 0
GLOBAL	__end_of_main
	__end_of_main:
;; =============== function _main ends ============

	signat	_main,88
psect	maintext
	global	btemp
	btemp set 07Eh

	DABS	1,126,2	;btemp
	global	wtemp0
	wtemp0 set btemp
	end
